target datalayout = "e-m:e-p270:32:32-p271:32:32-p272:64:64-i64:64-i128:128-f80:128-n8:16:32:64-S128"
target triple = "x86_64-pc-linux-gnu"

%struct.WOLFSSL_BUFFER_INFO = type { ptr, i32 }
%struct.ProtocolVersion = type { i8, i8 }
%struct.WOLFSSL_CTX = type <{ ptr, %struct.wolfSSL_RefWithMutex, i32, [4 x i8], %struct.WOLFSSL_BUFFER_INFO, %struct.WOLFSSL_BUFFER_INFO, ptr, ptr, i32, [4 x i8], ptr, i8, i8, [2 x i8], i32, i32, [4 x i8], ptr, ptr, ptr, i8, i16, i8, i8, i8, i16, i16, i16, i16, [2 x i8], i64, ptr, ptr, ptr, ptr, i32, i32, i16, [2 x i8], i32, [10 x i16], i8, [3 x i8], ptr, ptr, i32, [4 x i8], ptr, i8, [7 x i8] }>
%struct.wolfSSL_RefWithMutex = type { %union.pthread_mutex_t, i32 }
%union.pthread_mutex_t = type { %struct.__pthread_mutex_s }
%struct.__pthread_mutex_s = type { i32, i32, i32, i32, i32, i16, i16, %struct.__pthread_internal_list }
%struct.__pthread_internal_list = type { ptr, ptr }
%struct.WOLFSSL_METHOD = type { %struct.ProtocolVersion, i8, i8 }
%struct.TLSX = type { i32, ptr, i32, i8, ptr }

; Function Attrs: nounwind uwtable
define void @TLSX_Remove(ptr noundef %0, i32 noundef %1, ptr noundef %2) #0 {
  %4 = alloca ptr, align 8
  %5 = alloca i32, align 4
  %6 = alloca ptr, align 8
  %7 = alloca ptr, align 8
  %8 = alloca ptr, align 8
  %9 = alloca i32, align 4
  store ptr %0, ptr %4, align 8, !tbaa !75
  store i32 %1, ptr %5, align 4, !tbaa !12
  store ptr %2, ptr %6, align 8, !tbaa !54
  call void @llvm.lifetime.start.p0(i64 8, ptr %7) #8
  call void @llvm.lifetime.start.p0(i64 8, ptr %8) #8
  %10 = load ptr, ptr %4, align 8, !tbaa !75
  %11 = icmp eq ptr %10, null
  br i1 %11, label %12, label %13

12:                                               ; preds = %3
  store i32 1, ptr %9, align 4
  br label %47

13:                                               ; preds = %3
  %14 = load ptr, ptr %4, align 8, !tbaa !75
  %15 = load ptr, ptr %14, align 8, !tbaa !77
  store ptr %15, ptr %7, align 8, !tbaa !77
  %16 = load ptr, ptr %4, align 8, !tbaa !75
  store ptr %16, ptr %8, align 8, !tbaa !75
  br label %17

17:                                               ; preds = %28, %13
  %18 = load ptr, ptr %7, align 8, !tbaa !77
  %19 = icmp ne ptr %18, null
  br i1 %19, label %20, label %26

20:                                               ; preds = %17
  %21 = load ptr, ptr %7, align 8, !tbaa !77
  %22 = getelementptr inbounds nuw %struct.TLSX, ptr %21, i32 0, i32 0
  %23 = load i32, ptr %22, align 8, !tbaa !78
  %24 = load i32, ptr %5, align 4, !tbaa !12
  %25 = icmp ne i32 %23, %24
  br label %26

26:                                               ; preds = %20, %17
  %27 = phi i1 [ false, %17 ], [ %25, %20 ]
  br i1 %27, label %28, label %34

28:                                               ; preds = %26
  %29 = load ptr, ptr %7, align 8, !tbaa !77
  %30 = getelementptr inbounds nuw %struct.TLSX, ptr %29, i32 0, i32 4
  store ptr %30, ptr %8, align 8, !tbaa !75
  %31 = load ptr, ptr %7, align 8, !tbaa !77
  %32 = getelementptr inbounds nuw %struct.TLSX, ptr %31, i32 0, i32 4
  %33 = load ptr, ptr %32, align 8, !tbaa !80
  store ptr %33, ptr %7, align 8, !tbaa !77
  br label %17, !llvm.loop !81

34:                                               ; preds = %26
  %35 = load ptr, ptr %7, align 8, !tbaa !77
  %36 = icmp ne ptr %35, null
  br i1 %36, label %37, label %46

37:                                               ; preds = %34
  %38 = load ptr, ptr %7, align 8, !tbaa !77
  %39 = getelementptr inbounds nuw %struct.TLSX, ptr %38, i32 0, i32 4
  %40 = load ptr, ptr %39, align 8, !tbaa !80
  %41 = load ptr, ptr %8, align 8, !tbaa !75
  store ptr %40, ptr %41, align 8, !tbaa !77
  %42 = load ptr, ptr %7, align 8, !tbaa !77
  %43 = getelementptr inbounds nuw %struct.TLSX, ptr %42, i32 0, i32 4
  store ptr null, ptr %43, align 8, !tbaa !80
  %44 = load ptr, ptr %7, align 8, !tbaa !77
  %45 = load ptr, ptr %6, align 8, !tbaa !54
  call void @TLSX_FreeAll(ptr noundef %44, ptr noundef %45)
  br label %46

46:                                               ; preds = %37, %34
  store i32 0, ptr %9, align 4
  br label %47

47:                                               ; preds = %46, %12
  call void @llvm.lifetime.end.p0(i64 8, ptr %8) #8
  call void @llvm.lifetime.end.p0(i64 8, ptr %7) #8
  %48 = load i32, ptr %9, align 4
  switch i32 %48, label %50 [
    i32 0, label %49
    i32 1, label %49
  ]

49:                                               ; preds = %47, %47
  ret void

50:                                               ; preds = %47
  unreachable
}

; Function Attrs: nounwind uwtable
define i32 @wolfSSL_CTX_set_groups(ptr noundef %0, ptr noundef %1, i32 noundef %2) #0 {
  %4 = alloca i32, align 4
  %5 = alloca ptr, align 8
  %6 = alloca ptr, align 8
  %7 = alloca i32, align 4
  %8 = alloca i32, align 4
  %9 = alloca i32, align 4
  %10 = alloca i32, align 4
  store ptr %0, ptr %5, align 8, !tbaa !65
  store ptr %1, ptr %6, align 8, !tbaa !10
  store i32 %2, ptr %7, align 4, !tbaa !12
  call void @llvm.lifetime.start.p0(i64 4, ptr %8) #8
  call void @llvm.lifetime.start.p0(i64 4, ptr %9) #8
  br label %11

11:                                               ; preds = %3
  br label %12

12:                                               ; preds = %11
  br label %13

13:                                               ; preds = %12
  %14 = load ptr, ptr %5, align 8, !tbaa !65
  %15 = icmp eq ptr %14, null
  br i1 %15, label %22, label %16

16:                                               ; preds = %13
  %17 = load ptr, ptr %6, align 8, !tbaa !10
  %18 = icmp eq ptr %17, null
  br i1 %18, label %22, label %19

19:                                               ; preds = %16
  %20 = load i32, ptr %7, align 4, !tbaa !12
  %21 = icmp sgt i32 %20, 10
  br i1 %21, label %22, label %23

22:                                               ; preds = %19, %16, %13
  store i32 -173, ptr %4, align 4
  store i32 1, ptr %10, align 4
  br label %81

23:                                               ; preds = %19
  %24 = load ptr, ptr %5, align 8, !tbaa !65
  %25 = getelementptr inbounds nuw %struct.WOLFSSL_CTX, ptr %24, i32 0, i32 0
  %26 = load ptr, ptr %25, align 8, !tbaa !66
  %27 = getelementptr inbounds nuw %struct.WOLFSSL_METHOD, ptr %26, i32 0, i32 0
  %28 = load i16, ptr %27, align 1
  %29 = call i32 @IsTLS_ex(i16 %28)
  %30 = icmp ne i32 %29, 0
  br i1 %30, label %32, label %31

31:                                               ; preds = %23
  store i32 -173, ptr %4, align 4
  store i32 1, ptr %10, align 4
  br label %81

32:                                               ; preds = %23
  %33 = load ptr, ptr %5, align 8, !tbaa !65
  %34 = getelementptr inbounds nuw %struct.WOLFSSL_CTX, ptr %33, i32 0, i32 41
  store i8 0, ptr %34, align 4, !tbaa !71
  %35 = load ptr, ptr %5, align 8, !tbaa !65
  %36 = getelementptr inbounds nuw %struct.WOLFSSL_CTX, ptr %35, i32 0, i32 47
  %37 = load ptr, ptr %5, align 8, !tbaa !65
  %38 = getelementptr inbounds nuw %struct.WOLFSSL_CTX, ptr %37, i32 0, i32 19
  %39 = load ptr, ptr %38, align 8, !tbaa !72
  call void @TLSX_Remove(ptr noundef %36, i32 noundef 10, ptr noundef %39)
  store i32 0, ptr %9, align 4, !tbaa !12
  br label %40

40:                                               ; preds = %73, %32
  %41 = load i32, ptr %9, align 4, !tbaa !12
  %42 = load i32, ptr %7, align 4, !tbaa !12
  %43 = icmp slt i32 %41, %42
  br i1 %43, label %44, label %76

44:                                               ; preds = %40
  %45 = load ptr, ptr %5, align 8, !tbaa !65
  %46 = load ptr, ptr %6, align 8, !tbaa !10
  %47 = load i32, ptr %9, align 4, !tbaa !12
  %48 = sext i32 %47 to i64
  %49 = getelementptr inbounds i32, ptr %46, i64 %48
  %50 = load i32, ptr %49, align 4, !tbaa !12
  %51 = trunc i32 %50 to i16
  %52 = call i32 @wolfSSL_CTX_UseSupportedCurve(ptr noundef %45, i16 noundef zeroext %51)
  store i32 %52, ptr %8, align 4, !tbaa !12
  %53 = icmp ne i32 %52, 1
  br i1 %53, label %54, label %61

54:                                               ; preds = %44
  %55 = load ptr, ptr %5, align 8, !tbaa !65
  %56 = getelementptr inbounds nuw %struct.WOLFSSL_CTX, ptr %55, i32 0, i32 47
  %57 = load ptr, ptr %5, align 8, !tbaa !65
  %58 = getelementptr inbounds nuw %struct.WOLFSSL_CTX, ptr %57, i32 0, i32 19
  %59 = load ptr, ptr %58, align 8, !tbaa !72
  call void @TLSX_Remove(ptr noundef %56, i32 noundef 10, ptr noundef %59)
  %60 = load i32, ptr %8, align 4, !tbaa !12
  store i32 %60, ptr %4, align 4
  store i32 1, ptr %10, align 4
  br label %81

61:                                               ; preds = %44
  %62 = load ptr, ptr %6, align 8, !tbaa !10
  %63 = load i32, ptr %9, align 4, !tbaa !12
  %64 = sext i32 %63 to i64
  %65 = getelementptr inbounds i32, ptr %62, i64 %64
  %66 = load i32, ptr %65, align 4, !tbaa !12
  %67 = trunc i32 %66 to i16
  %68 = load ptr, ptr %5, align 8, !tbaa !65
  %69 = getelementptr inbounds nuw %struct.WOLFSSL_CTX, ptr %68, i32 0, i32 40
  %70 = load i32, ptr %9, align 4, !tbaa !12
  %71 = sext i32 %70 to i64
  %72 = getelementptr inbounds [10 x i16], ptr %69, i64 0, i64 %71
  store i16 %67, ptr %72, align 2, !tbaa !73
  br label %73

73:                                               ; preds = %61
  %74 = load i32, ptr %9, align 4, !tbaa !12
  %75 = add nsw i32 %74, 1
  store i32 %75, ptr %9, align 4, !tbaa !12
  br label %40, !llvm.loop !74

76:                                               ; preds = %40
  %77 = load i32, ptr %7, align 4, !tbaa !12
  %78 = trunc i32 %77 to i8
  %79 = load ptr, ptr %5, align 8, !tbaa !65
  %80 = getelementptr inbounds nuw %struct.WOLFSSL_CTX, ptr %79, i32 0, i32 41
  store i8 %78, ptr %80, align 4, !tbaa !71
  store i32 1, ptr %4, align 4
  store i32 1, ptr %10, align 4
  br label %81

81:                                               ; preds = %76, %54, %31, %22
  call void @llvm.lifetime.end.p0(i64 4, ptr %9) #8
  call void @llvm.lifetime.end.p0(i64 4, ptr %8) #8
  %82 = load i32, ptr %4, align 4
  ret i32 %82
}